target datalayout = "e-m:e-p270:32:32-p271:32:32-p272:64:64-i64:64-i128:128-f80:128-n8:16:32:64-S128"
target triple = "x86_64-pc-linux-gnu"

@_ZN23java_lang_boxing_object13_value_offsetE = hidden global i32 0, align 4
@_ZN23java_lang_boxing_object18_long_value_offsetE = hidden global i32 0, align 4
@.str.90 = private unnamed_addr constant [6 x i8] c"value\00", align 1
@_ZN9vmClasses8_klassesE = external global [0 x ptr], align 8
@_ZN6Symbol11_vm_symbolsE = external global [0 x ptr], align 8

; Function Attrs: mustprogress nounwind uwtable
define linkonce_odr hidden noundef ptr @_ZN9vmClasses11check_klassEP13InstanceKlass(ptr noundef %0) #1 comdat align 2 {
  %2 = alloca ptr, align 8
  store ptr %0, ptr %2, align 8
  %3 = load ptr, ptr %2, align 8
  ret ptr %3
}

; Function Attrs: mustprogress nounwind uwtable
define linkonce_odr hidden noundef ptr @_ZN9vmSymbols14long_signatureEv() #1 comdat align 2 {
  %1 = load ptr, ptr getelementptr inbounds ([0 x ptr], ptr @_ZN6Symbol11_vm_symbolsE, i64 0, i64 875), align 8
  ret ptr %1
}

; Function Attrs: mustprogress nounwind uwtable
define linkonce_odr hidden noundef ptr @_ZN9vmSymbols13int_signatureEv() #1 comdat align 2 {
  %1 = load ptr, ptr getelementptr inbounds ([0 x ptr], ptr @_ZN6Symbol11_vm_symbolsE, i64 0, i64 874), align 8
  ret ptr %1
}

; Function Attrs: mustprogress nounwind uwtable
define linkonce_odr hidden noundef ptr @_ZN9vmClasses10Long_klassEv() #1 comdat align 2 {
  %1 = load ptr, ptr getelementptr inbounds ([0 x ptr], ptr @_ZN9vmClasses8_klassesE, i64 0, i64 108), align 8
  %2 = call noundef ptr @_ZN9vmClasses11check_klassEP13InstanceKlass(ptr noundef %1)
  ret ptr %2
}

; Function Attrs: mustprogress nounwind uwtable
define linkonce_odr hidden noundef ptr @_ZN9vmClasses13Integer_klassEv() #1 comdat align 2 {
  %1 = load ptr, ptr getelementptr inbounds ([0 x ptr], ptr @_ZN9vmClasses8_klassesE, i64 0, i64 107), align 8
  %2 = call noundef ptr @_ZN9vmClasses11check_klassEP13InstanceKlass(ptr noundef %1)
  ret ptr %2
}

; Function Attrs: mustprogress nounwind uwtable
define hidden void @_ZN23java_lang_boxing_object15compute_offsetsEv() #1 align 2 {
  %1 = alloca ptr, align 8
  %2 = alloca ptr, align 8
  %3 = call noundef ptr @_ZN9vmClasses13Integer_klassEv()
  store ptr %3, ptr %1, align 8
  %4 = call noundef ptr @_ZN9vmClasses10Long_klassEv()
  store ptr %4, ptr %2, align 8
  %5 = load ptr, ptr %1, align 8
  %6 = call noundef ptr @_ZN9vmSymbols13int_signatureEv()
  call void @_ZN11JavaClasses14compute_offsetERiP13InstanceKlassPKcP6Symbolb(ptr noundef nonnull align 4 dereferenceable(4) @_ZN23java_lang_boxing_object13_value_offsetE, ptr noundef %5, ptr noundef @.str.90, ptr noundef %6, i1 noundef zeroext false)
  %7 = load ptr, ptr %2, align 8
  %8 = call noundef ptr @_ZN9vmSymbols14long_signatureEv()
  call void @_ZN11JavaClasses14compute_offsetERiP13InstanceKlassPKcP6Symbolb(ptr noundef nonnull align 4 dereferenceable(4) @_ZN23java_lang_boxing_object18_long_value_offsetE, ptr noundef %7, ptr noundef @.str.90, ptr noundef %8, i1 noundef zeroext false)
  ret void
}