; Function Attrs: mustprogress nounwind uwtable
define hidden void @_ZN23java_lang_boxing_object15compute_offsetsEv() local_unnamed_addr #0 align 2 {
  %1 = load ptr, ptr getelementptr inbounds (i8, ptr @_ZN9vmClasses8_klassesE, i64 856), align 8
  %2 = load ptr, ptr getelementptr inbounds (i8, ptr @_ZN9vmClasses8_klassesE, i64 864), align 8
  %3 = load ptr, ptr getelementptr inbounds (i8, ptr @_ZN6Symbol11_vm_symbolsE, i64 6992), align 8
  tail call void @_ZN11JavaClasses14compute_offsetERiP13InstanceKlassPKcP6Symbolb(ptr noundef nonnull align 4 dereferenceable(4) @_ZN23java_lang_boxing_object13_value_offsetE, ptr noundef %1, ptr noundef nonnull @.str.90, ptr noundef %3, i1 noundef zeroext false)
  %4 = load ptr, ptr getelementptr inbounds (i8, ptr @_ZN6Symbol11_vm_symbolsE, i64 7000), align 8
  tail call void @_ZN11JavaClasses14compute_offsetERiP13InstanceKlassPKcP6Symbolb(ptr noundef nonnull align 4 dereferenceable(4) @_ZN23java_lang_boxing_object18_long_value_offsetE, ptr noundef %2, ptr noundef nonnull @.str.90, ptr noundef %4, i1 noundef zeroext false)
  ret void
}